; Function Attrs: mustprogress nofree norecurse nosync nounwind memory(readwrite, inaccessiblemem: none) uwtable
define dso_local void @_ZN22b3GpuRigidBodyPipeline16removeConstraintEP17b3TypedConstraint(ptr nocapture noundef nonnull readonly align 8 dereferenceable(16) %this, ptr noundef readnone %constraint) local_unnamed_addr #9 align 2 {
entry:
  %m_data = getelementptr inbounds i8, ptr %this, i64 8
  %0 = load ptr, ptr %m_data, align 8
  %m_size.i.i.i = getelementptr inbounds i8, ptr %0, i64 196
  %1 = load i32, ptr %m_size.i.i.i, align 4
  %cmp5.i.i = icmp sgt i32 %1, 0
  br i1 %cmp5.i.i, label %for.body.lr.ph.i.i, label %_ZN20b3AlignedObjectArrayIP17b3TypedConstraintE6removeERKS1_.exit

for.body.lr.ph.i.i:                               ; preds = %entry
  %m_data.i.i = getelementptr inbounds i8, ptr %0, i64 208
  %2 = load ptr, ptr %m_data.i.i, align 8
  %wide.trip.count.i.i = zext nneg i32 %1 to i64
  br label %for.body.i.i

for.body.i.i:                                     ; preds = %for.inc.i.i, %for.body.lr.ph.i.i
  %indvars.iv.i.i = phi i64 [ 0, %for.body.lr.ph.i.i ], [ %indvars.iv.next.i.i, %for.inc.i.i ]
  %arrayidx.i.i = getelementptr inbounds ptr, ptr %2, i64 %indvars.iv.i.i
  %3 = load ptr, ptr %arrayidx.i.i, align 8
  %cmp3.i.i = icmp eq ptr %3, %constraint
  br i1 %cmp3.i.i, label %_ZNK20b3AlignedObjectArrayIP17b3TypedConstraintE16findLinearSearchERKS1_.exit.i, label %for.inc.i.i

for.inc.i.i:                                      ; preds = %for.body.i.i
  %indvars.iv.next.i.i = add nuw nsw i64 %indvars.iv.i.i, 1
  %exitcond.not.i.i = icmp eq i64 %indvars.iv.next.i.i, %wide.trip.count.i.i
  br i1 %exitcond.not.i.i, label %_ZN20b3AlignedObjectArrayIP17b3TypedConstraintE6removeERKS1_.exit, label %for.body.i.i, !llvm.loop !8

_ZNK20b3AlignedObjectArrayIP17b3TypedConstraintE16findLinearSearchERKS1_.exit.i: ; preds = %for.body.i.i
  %4 = trunc i64 %indvars.iv.i.i to i32
  %cmp.i = icmp sgt i32 %1, %4
  br i1 %cmp.i, label %if.then.i, label %_ZN20b3AlignedObjectArrayIP17b3TypedConstraintE6removeERKS1_.exit

if.then.i:                                        ; preds = %_ZNK20b3AlignedObjectArrayIP17b3TypedConstraintE16findLinearSearchERKS1_.exit.i
  %sub.i = add nsw i32 %1, -1
  %sext.i = shl i64 %indvars.iv.i.i, 32
  %idxprom.i.i = ashr exact i64 %sext.i, 32
  %arrayidx.i4.i = getelementptr inbounds ptr, ptr %2, i64 %idxprom.i.i
  %5 = load ptr, ptr %arrayidx.i4.i, align 8
  %idxprom3.i.i = sext i32 %sub.i to i64
  %arrayidx4.i.i = getelementptr inbounds ptr, ptr %2, i64 %idxprom3.i.i
  %6 = load ptr, ptr %arrayidx4.i.i, align 8
  store ptr %6, ptr %arrayidx.i4.i, align 8
  %7 = load ptr, ptr %m_data.i.i, align 8
  %arrayidx10.i.i = getelementptr inbounds ptr, ptr %7, i64 %idxprom3.i.i
  store ptr %5, ptr %arrayidx10.i.i, align 8
  %8 = load i32, ptr %m_size.i.i.i, align 4
  %dec.i.i = add nsw i32 %8, -1
  store i32 %dec.i.i, ptr %m_size.i.i.i, align 4
  br label %_ZN20b3AlignedObjectArrayIP17b3TypedConstraintE6removeERKS1_.exit

_ZN20b3AlignedObjectArrayIP17b3TypedConstraintE6removeERKS1_.exit: ; preds = %for.inc.i.i, %entry, %_ZNK20b3AlignedObjectArrayIP17b3TypedConstraintE16findLinearSearchERKS1_.exit.i, %if.then.i
  ret void
}